target datalayout = "e-m:e-p270:32:32-p271:32:32-p272:64:64-i64:64-i128:128-f80:128-n8:16:32:64-S128"
target triple = "x86_64-pc-linux-gnu"

%struct.NSVGpath = type { ptr, i32, i8, [4 x float], ptr }

; Function Attrs: nounwind uwtable
define dso_local ptr @nsvgDuplicatePath(ptr noundef %0) #0 {
  %2 = alloca ptr, align 8
  %3 = alloca ptr, align 8
  %4 = alloca ptr, align 8
  %5 = alloca i32, align 4
  store ptr %0, ptr %3, align 8, !tbaa !73
  call void @llvm.lifetime.start.p0(i64 8, ptr %4) #11
  store ptr null, ptr %4, align 8, !tbaa !73
  %6 = load ptr, ptr %3, align 8, !tbaa !73
  %7 = icmp eq ptr %6, null
  br i1 %7, label %8, label %9

8:                                                ; preds = %1
  store ptr null, ptr %2, align 8
  store i32 1, ptr %5, align 4
  br label %69

9:                                                ; preds = %1
  %10 = call noalias ptr @malloc(i64 noundef 40) #12
  store ptr %10, ptr %4, align 8, !tbaa !73
  %11 = load ptr, ptr %4, align 8, !tbaa !73
  %12 = icmp eq ptr %11, null
  br i1 %12, label %13, label %14

13:                                               ; preds = %9
  br label %60

14:                                               ; preds = %9
  %15 = load ptr, ptr %4, align 8, !tbaa !73
  call void @llvm.memset.p0.i64(ptr align 8 %15, i8 0, i64 40, i1 false)
  %16 = load ptr, ptr %3, align 8, !tbaa !73
  %17 = getelementptr inbounds nuw %struct.NSVGpath, ptr %16, i32 0, i32 1
  %18 = load i32, ptr %17, align 8, !tbaa !74
  %19 = mul nsw i32 %18, 2
  %20 = sext i32 %19 to i64
  %21 = mul i64 %20, 4
  %22 = call noalias ptr @malloc(i64 noundef %21) #12
  %23 = load ptr, ptr %4, align 8, !tbaa !73
  %24 = getelementptr inbounds nuw %struct.NSVGpath, ptr %23, i32 0, i32 0
  store ptr %22, ptr %24, align 8, !tbaa !76
  %25 = load ptr, ptr %4, align 8, !tbaa !73
  %26 = getelementptr inbounds nuw %struct.NSVGpath, ptr %25, i32 0, i32 0
  %27 = load ptr, ptr %26, align 8, !tbaa !76
  %28 = icmp eq ptr %27, null
  br i1 %28, label %29, label %30

29:                                               ; preds = %14
  br label %60

30:                                               ; preds = %14
  %31 = load ptr, ptr %4, align 8, !tbaa !73
  %32 = getelementptr inbounds nuw %struct.NSVGpath, ptr %31, i32 0, i32 0
  %33 = load ptr, ptr %32, align 8, !tbaa !76
  %34 = load ptr, ptr %3, align 8, !tbaa !73
  %35 = getelementptr inbounds nuw %struct.NSVGpath, ptr %34, i32 0, i32 0
  %36 = load ptr, ptr %35, align 8, !tbaa !76
  %37 = load ptr, ptr %3, align 8, !tbaa !73
  %38 = getelementptr inbounds nuw %struct.NSVGpath, ptr %37, i32 0, i32 1
  %39 = load i32, ptr %38, align 8, !tbaa !74
  %40 = sext i32 %39 to i64
  %41 = mul i64 %40, 4
  %42 = mul i64 %41, 2
  call void @llvm.memcpy.p0.p0.i64(ptr align 4 %33, ptr align 4 %36, i64 %42, i1 false)
  %43 = load ptr, ptr %3, align 8, !tbaa !73
  %44 = getelementptr inbounds nuw %struct.NSVGpath, ptr %43, i32 0, i32 1
  %45 = load i32, ptr %44, align 8, !tbaa !74
  %46 = load ptr, ptr %4, align 8, !tbaa !73
  %47 = getelementptr inbounds nuw %struct.NSVGpath, ptr %46, i32 0, i32 1
  store i32 %45, ptr %47, align 8, !tbaa !74
  %48 = load ptr, ptr %4, align 8, !tbaa !73
  %49 = getelementptr inbounds nuw %struct.NSVGpath, ptr %48, i32 0, i32 3
  %50 = getelementptr inbounds [4 x float], ptr %49, i64 0, i64 0
  %51 = load ptr, ptr %3, align 8, !tbaa !73
  %52 = getelementptr inbounds nuw %struct.NSVGpath, ptr %51, i32 0, i32 3
  %53 = getelementptr inbounds [4 x float], ptr %52, i64 0, i64 0
  call void @llvm.memcpy.p0.p0.i64(ptr align 8 %50, ptr align 8 %53, i64 16, i1 false)
  %54 = load ptr, ptr %3, align 8, !tbaa !73
  %55 = getelementptr inbounds nuw %struct.NSVGpath, ptr %54, i32 0, i32 2
  %56 = load i8, ptr %55, align 4, !tbaa !94
  %57 = load ptr, ptr %4, align 8, !tbaa !73
  %58 = getelementptr inbounds nuw %struct.NSVGpath, ptr %57, i32 0, i32 2
  store i8 %56, ptr %58, align 4, !tbaa !94
  %59 = load ptr, ptr %4, align 8, !tbaa !73
  store ptr %59, ptr %2, align 8
  store i32 1, ptr %5, align 4
  br label %69

60:                                               ; preds = %29, %13
  %61 = load ptr, ptr %4, align 8, !tbaa !73
  %62 = icmp ne ptr %61, null
  br i1 %62, label %63, label %68

63:                                               ; preds = %60
  %64 = load ptr, ptr %4, align 8, !tbaa !73
  %65 = getelementptr inbounds nuw %struct.NSVGpath, ptr %64, i32 0, i32 0
  %66 = load ptr, ptr %65, align 8, !tbaa !76
  call void @free(ptr noundef %66) #11
  %67 = load ptr, ptr %4, align 8, !tbaa !73
  call void @free(ptr noundef %67) #11
  br label %68

68:                                               ; preds = %63, %60
  store ptr null, ptr %2, align 8
  store i32 1, ptr %5, align 4
  br label %69

69:                                               ; preds = %68, %30, %8
  call void @llvm.lifetime.end.p0(i64 8, ptr %4) #11
  %70 = load ptr, ptr %2, align 8
  ret ptr %70
}