; Function Attrs: mustprogress nounwind willreturn uwtable
define dso_local noalias noundef ptr @nsvgDuplicatePath(ptr noundef readonly captures(address_is_null) %0) local_unnamed_addr #7 {
  %2 = icmp eq ptr %0, null
  br i1 %2, label %23, label %3

3:                                                ; preds = %1
  %calloc = tail call dereferenceable_or_null(40) ptr @calloc(i64 1, i64 40)
  %cond = icmp eq ptr %calloc, null
  br i1 %cond, label %23, label %4

4:                                                ; preds = %3
  %5 = getelementptr inbounds nuw i8, ptr %0, i64 8
  %6 = load i32, ptr %5, align 8, !tbaa !61
  %7 = shl nsw i32 %6, 1
  %8 = sext i32 %7 to i64
  %9 = shl nsw i64 %8, 2
  %10 = tail call noalias ptr @malloc(i64 noundef %9) #34
  store ptr %10, ptr %calloc, align 8, !tbaa !63
  %11 = icmp eq ptr %10, null
  br i1 %11, label %22, label %12

12:                                               ; preds = %4
  %13 = load ptr, ptr %0, align 8, !tbaa !63
  %14 = sext i32 %6 to i64
  %15 = shl nsw i64 %14, 3
  tail call void @llvm.memcpy.p0.p0.i64(ptr nonnull align 4 %10, ptr align 4 %13, i64 %15, i1 false)
  %16 = getelementptr inbounds nuw i8, ptr %calloc, i64 8
  store i32 %6, ptr %16, align 8, !tbaa !61
  %17 = getelementptr inbounds nuw i8, ptr %calloc, i64 16
  %18 = getelementptr inbounds nuw i8, ptr %0, i64 16
  tail call void @llvm.memcpy.p0.p0.i64(ptr noundef nonnull align 8 dereferenceable(16) %17, ptr noundef nonnull align 8 dereferenceable(16) %18, i64 16, i1 false)
  %19 = getelementptr inbounds nuw i8, ptr %0, i64 12
  %20 = load i8, ptr %19, align 4, !tbaa !97
  %21 = getelementptr inbounds nuw i8, ptr %calloc, i64 12
  store i8 %20, ptr %21, align 4, !tbaa !97
  br label %23

22:                                               ; preds = %4
  tail call void @free(ptr noundef nonnull %calloc) #31
  br label %23

23:                                               ; preds = %3, %22, %1, %12
  %.0 = phi ptr [ %calloc, %12 ], [ null, %1 ], [ null, %3 ], [ null, %22 ]
  ret ptr %.0
}